(dp1
S'body'
p2
S'TEXT'
p3
sS'author'
p4
S'CHAR(512)'
p5
sS'userid'
p6
S'CHAR(512)'
p7
sS'post_id'
p8
S'REFERENCES post(id) ON DELETE CASCADE'
p9
sS'created_on'
p10
S'TIMESTAMP'
p11
sS'topic_id'
p12
S'REFERENCES topic(id) ON DELETE CASCADE'
p13
sS'id'
p14
S'INTEGER PRIMARY KEY AUTOINCREMENT'
p15
s.