(dp1
S'output'
p2
S''
sS'layer'
p3
S'/Users/vphan/Programs/forum/applications/roundtable/controllers/default.py'
p4
sS'code'
p5
S"from gluon.tools import Crud\ncrud = Crud(globals(), db)\n\ndef index():\n    topics = db().select(db.topic.ALL, orderby=db.topic.id)\n    return dict(topics=topics)\n\ndef show():\n    topic = db(db.topic.id==request.args(0)).select()[0]\n    comments = db(db.comment.topic_id==topic.id).select()\n    db.comment.topic_id.default = db.topic.id\n    comment_form = crud.create(db.comment, next=URL(r=request, f='show', args=request.args(0)), message='your comment is created')\n    return dict(topic=topic, comments=comments, comment_form=comment_form)\n    \ndef add_topic():\n    form = crud.create(db.topic, next=URL(r=request, f='index'), message='your topic is created')\n    return dict(form=form)\n    \ndef reply():\n    db.comment.topic_id.default = request.args(0)\n    form = crud.create(db.comment, next=URL(r=request, f='show', args=request.args(0)), message='your comment is created')\n    return dict(form=form)\n\nresponse._vars=response._caller(show)\n"
p6
sS'traceback'
p7
S'Traceback (most recent call last):\n  File "/Users/vphan/Programs/forum/gluon/restricted.py", line 173, in restricted\n    exec ccode in environment\n  File "/Users/vphan/Programs/forum/applications/roundtable/controllers/default.py", line 24, in <module>\n  File "/Users/vphan/Programs/forum/gluon/globals.py", line 96, in <lambda>\n    self._caller = lambda f: f()\n  File "/Users/vphan/Programs/forum/applications/roundtable/controllers/default.py", line 12, in show\n    comment_form = crud.create(db.comment, next=URL(r=request, f=\'show\', args=request.args(0)), message=\'your comment is created\')\n  File "/Users/vphan/Programs/forum/gluon/tools.py", line 2428, in create\n    deletable=False,\n  File "/Users/vphan/Programs/forum/gluon/tools.py", line 2375, in update\n    keepvalues=self.settings.keepvalues):\n  File "/Users/vphan/Programs/forum/gluon/sqlhtml.py", line 975, in accepts\n    self.vars.id = self.table.insert(**fields)\n  File "/Users/vphan/Programs/forum/gluon/sql.py", line 1889, in insert\n    query = self._insert(**fields)\n  File "/Users/vphan/Programs/forum/gluon/sql.py", line 1880, in _insert\n    sql_v = \', \'.join(vs)\nTypeError: sequence item 2: expected string, Field found\n'
p8
s.