(dp1
S'output'
p2
S''
sS'layer'
p3
S'/Users/vphan/Programs/forum/applications/roundtable/controllers/default.py'
p4
sS'code'
p5
S"from gluon.tools import Crud\ncrud = Crud(globals(), db)\n\ndef index():\n    topics = db().select(db.topic.ALL, orderby=db.topic.id)\n    return dict(topics=topics)\n\ndef show():\n    topic = db(db.topic.id==request.args(0)).select()[0]\n    comments = db(db.comment.topic_id==topic.id).select()\n    db.comment.topic_id.default = topic.id\n    comment_form = crud.create(db.comment, next=URL(r=request, f='show', args=request.args(0)), message='your comment is created.')\n    return dict(topic=topic, comments=comments, comment_form=comment_form)\n    \ndef add_topic():\n    form = crud.create(db.topic, next=URL(r=request, f='index'), message='your topic is created.')\n    return dict(form=form)\n\ndef edit_topic():\n    form = crud.update(db.topic, next=URL(r=request, f='show', args=request.args(0)), message='your topic is updated.')\n    return dict(form=form)\n\ndef reply():\n    db.comment.topic_id.default = request.args(0)\n    form = crud.create(db.comment, next=URL(r=request, f='show', args=request.args(0)), message='your comment is created')\n    return dict(form=form)\n\nresponse._vars=response._caller(edit_topic)\n"
p6
sS'traceback'
p7
S'Traceback (most recent call last):\n  File "/Users/vphan/Programs/forum/gluon/restricted.py", line 173, in restricted\n    exec ccode in environment\n  File "/Users/vphan/Programs/forum/applications/roundtable/controllers/default.py", line 28, in <module>\n  File "/Users/vphan/Programs/forum/gluon/globals.py", line 96, in <lambda>\n    self._caller = lambda f: f()\n  File "/Users/vphan/Programs/forum/applications/roundtable/controllers/default.py", line 20, in edit_topic\n    form = crud.update(db.topic, next=URL(r=request, f=\'show\', args=request.args(0)), message=\'your topic is updated.\')\nTypeError: update() takes at least 3 non-keyword arguments (2 given)\n'
p8
s.